Certificate:
    Data:
        Version: 1 (0x0)
        Serial Number: 4096 (0x1000)
    Signature Algorithm: sha256WithRSAEncryption
        Issuer: O=testing.veneur.org, OU=ca, CN=veneur testing CA
        Validity
            Not Before: Jul 16 17:06:52 2020 GMT
            Not After : Jul 26 17:06:52 2021 GMT
        Subject: O=testing.veneur.org, OU=ca, CN=veneur testing CA
        Subject Public Key Info:
            Public Key Algorithm: rsaEncryption
                Public-Key: (2048 bit)
                Modulus:
                    00:cc:db:e7:46:48:02:fe:50:68:aa:54:0b:e4:15:
                    aa:71:ff:b2:14:b6:2c:56:fc:f4:5d:e6:03:1c:f1:
                    c2:02:bb:f4:d8:0f:3c:2d:2b:98:62:51:5a:44:b8:
                    a3:83:7c:c0:08:87:1d:51:af:3e:cc:52:67:60:88:
                    0f:60:80:1f:82:11:a8:b1:18:9a:52:2c:bb:b2:d4:
                    ae:51:89:c6:20:4d:c2:a5:f1:e5:f2:d0:89:9b:f5:
                    9f:e2:68:bc:96:6e:67:9f:f5:3a:b3:2d:11:e1:e1:
                    48:98:cb:35:02:53:db:d1:28:34:08:e7:7b:2c:08:
                    78:f0:85:f7:ec:e0:0e:7b:6f:b8:84:c0:61:3a:a5:
                    fa:80:77:c5:e9:d5:c7:a2:9a:7c:36:55:66:a1:75:
                    a3:b2:a8:d4:d2:7f:5d:ab:40:64:7e:58:82:25:b2:
                    d5:83:53:c8:d0:5c:91:34:a1:42:09:92:54:4a:09:
                    08:3a:56:7e:4f:9c:5f:8c:cd:1d:de:43:b0:e5:3b:
                    57:29:74:3b:9e:0a:8d:03:13:80:2d:b5:77:f5:0f:
                    3e:3c:31:7a:2e:1a:30:61:98:f0:17:bf:4d:88:af:
                    ea:53:d7:08:7b:5a:f9:3f:63:1e:76:d3:81:f1:58:
                    7c:61:cf:a0:ee:e1:8e:48:50:d8:b5:5b:86:13:2f:
                    42:3b
                Exponent: 65537 (0x10001)
    Signature Algorithm: sha256WithRSAEncryption
         cb:d1:30:1e:4d:f8:07:9c:4d:7e:a5:47:3d:69:64:ee:dd:5a:
         f6:c5:a0:2f:99:b9:5a:97:89:51:3e:2c:20:c4:4d:d1:55:20:
         c6:9e:ee:bb:53:75:5d:7f:43:78:e8:45:90:50:ca:8a:ae:ab:
         49:e7:5f:ec:5b:d2:15:af:ab:9d:30:8c:4d:38:bf:ec:80:55:
         af:15:71:70:1f:c7:95:d6:af:8c:11:30:60:11:d1:fb:7b:a8:
         f3:4e:f6:a5:d5:f0:b2:80:c8:2b:38:8d:29:c2:f1:4a:c0:1e:
         81:2e:06:14:d2:c8:7f:7e:14:ec:2a:1c:c8:ad:08:61:94:81:
         cf:de:d0:04:8b:34:f9:11:ff:bf:70:c5:9b:13:68:e3:76:17:
         8f:ca:91:c2:6d:93:e0:73:de:98:18:e2:56:af:b6:12:e6:e6:
         cc:bf:b0:f4:b2:08:f2:be:88:b3:eb:0a:91:cc:83:78:a2:40:
         c9:3b:2e:1f:78:5b:3d:86:0f:ee:08:10:a0:7f:21:04:1f:eb:
         86:1a:56:9c:1c:da:4e:76:e6:42:ec:4d:20:ff:ad:9f:98:04:
         48:85:6b:6a:ff:cd:7d:22:f9:47:92:30:7c:02:f1:e5:b1:83:
         49:fe:e1:27:9f:0c:32:56:ba:46:ea:1e:92:05:38:04:02:3f:
         f6:14:5b:c6
-----BEGIN CERTIFICATE-----
MIIDATCCAekCAhAAMA0GCSqGSIb3DQEBCwUAMEYxGzAZBgNVBAoMEnRlc3Rpbmcu
dmVuZXVyLm9yZzELMAkGA1UECwwCY2ExGjAYBgNVBAMMEXZlbmV1ciB0ZXN0aW5n
IENBMB4XDTIwMDcxNjE3MDY1MloXDTIxMDcyNjE3MDY1MlowRjEbMBkGA1UECgwS
dGVzdGluZy52ZW5ldXIub3JnMQswCQYDVQQLDAJjYTEaMBgGA1UEAwwRdmVuZXVy
IHRlc3RpbmcgQ0EwggEiMA0GCSqGSIb3DQEBAQUAA4IBDwAwggEKAoIBAQDM2+dG
SAL+UGiqVAvkFapx/7IUtixW/PRd5gMc8cICu/TYDzwtK5hiUVpEuKODfMAIhx1R
rz7MUmdgiA9ggB+CEaixGJpSLLuy1K5RicYgTcKl8eXy0Imb9Z/iaLyWbmef9Tqz
LRHh4UiYyzUCU9vRKDQI53ssCHjwhffs4A57b7iEwGE6pfqAd8Xp1ceimnw2VWah
daOyqNTSf12rQGR+WIIlstWDU8jQXJE0oUIJklRKCQg6Vn5PnF+MzR3eQ7DlO1cp
dDueCo0DE4AttXf1Dz48MXouGjBhmPAXv02Ir+pT1wh7Wvk/Yx5204HxWHxhz6Du
4Y5IUNi1W4YTL0I7AgMBAAEwDQYJKoZIhvcNAQELBQADggEBAMvRMB5N+AecTX6l
Rz1pZO7dWvbFoC+ZuVqXiVE+LCDETdFVIMae7rtTdV1/Q3joRZBQyoquq0nnX+xb
0hWvq50wjE04v+yAVa8VcXAfx5XWr4wRMGAR0ft7qPNO9qXV8LKAyCs4jSnC8UrA
HoEuBhTSyH9+FOwqHMitCGGUgc/e0ASLNPkR/79wxZsTaON2F4/KkcJtk+Bz3pgY
4lavthLm5sy/sPSyCPK+iLPrCpHMg3iiQMk7Lh94Wz2GD+4IEKB/IQQf64YaVpwc
2k525kLsTSD/rZ+YBEiFa2r/zX0i+UeSMHwC8eWxg0n+4SefDDJWukbqHpIFOAQC
P/YUW8Y=
-----END CERTIFICATE-----
