Certificate:
    Data:
        Version: 1 (0x0)
        Serial Number: 4096 (0x1000)
    Signature Algorithm: sha256WithRSAEncryption
        Issuer: O=testing.veneur.org, OU=ca, CN=veneur testing CA
        Validity
            Not Before: Aug  3 20:30:35 2021 GMT
            Not After : Aug 13 20:30:35 2022 GMT
        Subject: O=testing.veneur.org, OU=ca, CN=veneur testing CA
        Subject Public Key Info:
            Public Key Algorithm: rsaEncryption
                Public-Key: (2048 bit)
                Modulus:
                    00:f4:b9:5b:de:b7:b4:07:38:ff:6e:27:0e:c9:96:
                    04:e3:ab:56:1e:7e:c4:2f:ba:72:07:6e:c2:ce:25:
                    ba:cc:fe:a5:49:cc:0f:57:e9:0a:4d:96:71:8d:70:
                    26:b2:04:03:7f:22:04:ed:1e:23:30:52:b9:79:fc:
                    e1:42:f3:0c:9e:70:66:a6:dd:b0:c3:3f:82:83:31:
                    12:47:d2:f0:dd:25:69:6d:5c:68:ec:d5:2e:43:9b:
                    c9:36:43:4e:42:3d:57:30:14:52:92:f9:a2:c8:9b:
                    c8:a9:f0:6e:4e:79:2f:ee:90:f9:92:53:61:cd:fe:
                    ab:db:68:21:df:fa:5e:e6:95:2b:ca:7c:06:6e:78:
                    fc:4d:8f:b0:64:cf:9e:60:6a:7e:c6:25:75:de:88:
                    bb:24:90:75:35:99:47:43:f4:b3:47:a1:d1:63:57:
                    28:2d:a4:4a:df:42:35:cd:9e:26:ec:2e:af:bc:a4:
                    26:78:17:fa:d2:20:23:b8:ff:7f:fd:49:72:51:48:
                    e0:19:39:bd:e3:5c:79:44:58:65:30:9f:35:80:17:
                    de:3b:54:b5:7f:38:01:b4:5c:71:fb:27:25:d6:b3:
                    89:8b:9c:01:e4:04:48:7c:99:e9:3e:9c:77:22:63:
                    e3:c3:a1:19:61:be:a3:9e:63:e7:39:45:5b:0f:b7:
                    33:b9
                Exponent: 65537 (0x10001)
    Signature Algorithm: sha256WithRSAEncryption
         ec:4f:ac:ee:ed:44:82:a1:cc:57:52:07:50:c7:9a:6e:d8:c7:
         88:c5:12:3f:1b:e7:a2:3c:86:9e:9b:05:e7:88:58:9f:5c:95:
         e7:00:5e:46:92:a9:26:c1:e6:09:0c:5a:06:92:61:79:21:9e:
         53:7e:f3:1f:b2:ff:42:2e:0a:c0:19:07:e7:18:d0:8e:c0:fb:
         6f:f0:cc:51:5d:62:87:cb:6a:3b:42:69:15:b5:47:c0:9f:07:
         75:18:5d:cb:32:a9:29:a2:54:85:99:56:95:57:bd:86:93:41:
         8d:d7:f8:04:4a:b6:7b:a9:92:0f:1f:78:04:aa:0f:0c:5b:92:
         ea:6b:ee:ba:33:53:bc:46:c9:27:44:b6:93:d8:31:0a:d0:5c:
         9e:e3:88:32:6d:a1:1f:78:11:e8:36:3e:08:00:9b:58:3f:a5:
         d8:88:7d:06:28:be:6f:08:96:83:8d:90:90:83:6f:bf:d0:af:
         aa:ad:27:f2:c5:79:6a:9d:3e:50:90:e3:6d:92:57:ac:52:6f:
         4b:e2:5b:cc:05:ad:c0:ce:de:ae:ac:6f:03:09:47:a4:1b:a8:
         22:a5:68:af:ab:a3:ab:61:79:e4:74:0e:b5:14:81:97:ad:b2:
         14:cf:d7:74:72:0c:01:65:be:3c:a9:79:ad:e2:16:f3:77:9e:
         ed:19:bf:9a
-----BEGIN CERTIFICATE-----
MIIDATCCAekCAhAAMA0GCSqGSIb3DQEBCwUAMEYxGzAZBgNVBAoMEnRlc3Rpbmcu
dmVuZXVyLm9yZzELMAkGA1UECwwCY2ExGjAYBgNVBAMMEXZlbmV1ciB0ZXN0aW5n
IENBMB4XDTIxMDgwMzIwMzAzNVoXDTIyMDgxMzIwMzAzNVowRjEbMBkGA1UECgwS
dGVzdGluZy52ZW5ldXIub3JnMQswCQYDVQQLDAJjYTEaMBgGA1UEAwwRdmVuZXVy
IHRlc3RpbmcgQ0EwggEiMA0GCSqGSIb3DQEBAQUAA4IBDwAwggEKAoIBAQD0uVve
t7QHOP9uJw7JlgTjq1YefsQvunIHbsLOJbrM/qVJzA9X6QpNlnGNcCayBAN/IgTt
HiMwUrl5/OFC8wyecGam3bDDP4KDMRJH0vDdJWltXGjs1S5Dm8k2Q05CPVcwFFKS
+aLIm8ip8G5OeS/ukPmSU2HN/qvbaCHf+l7mlSvKfAZuePxNj7Bkz55gan7GJXXe
iLskkHU1mUdD9LNHodFjVygtpErfQjXNnibsLq+8pCZ4F/rSICO4/3/9SXJRSOAZ
Ob3jXHlEWGUwnzWAF947VLV/OAG0XHH7JyXWs4mLnAHkBEh8mek+nHciY+PDoRlh
vqOeY+c5RVsPtzO5AgMBAAEwDQYJKoZIhvcNAQELBQADggEBAOxPrO7tRIKhzFdS
B1DHmm7Yx4jFEj8b56I8hp6bBeeIWJ9clecAXkaSqSbB5gkMWgaSYXkhnlN+8x+y
/0IuCsAZB+cY0I7A+2/wzFFdYofLajtCaRW1R8CfB3UYXcsyqSmiVIWZVpVXvYaT
QY3X+ARKtnupkg8feASqDwxbkupr7rozU7xGySdEtpPYMQrQXJ7jiDJtoR94Eeg2
PggAm1g/pdiIfQYovm8IloONkJCDb7/Qr6qtJ/LFeWqdPlCQ422SV6xSb0viW8wF
rcDO3q6sbwMJR6QbqCKlaK+ro6theeR0DrUUgZetshTP13RyDAFlvjypea3iFvN3
nu0Zv5o=
-----END CERTIFICATE-----
