Certificate:
    Data:
        Version: 1 (0x0)
        Serial Number: 4096 (0x1000)
    Signature Algorithm: sha256WithRSAEncryption
        Issuer: O=testing.veneur.org, OU=ca, CN=veneur testing CA
        Validity
            Not Before: Aug 15 18:23:48 2022 GMT
            Not After : Aug 25 18:23:48 2023 GMT
        Subject: O=testing.veneur.org, OU=ca, CN=veneur testing CA
        Subject Public Key Info:
            Public Key Algorithm: rsaEncryption
                Public-Key: (2048 bit)
                Modulus:
                    00:d2:92:86:37:e7:da:d2:57:55:0c:5a:90:f0:ed:
                    b0:76:03:38:d7:fd:0e:6b:cc:64:83:fc:41:de:59:
                    aa:6d:bf:ec:92:6c:20:ee:cd:8a:a1:8c:43:3d:a8:
                    83:ec:b7:0e:9c:53:75:fa:b8:b8:9a:e9:5c:5e:7e:
                    80:ec:fe:1a:65:a5:ae:97:e3:fb:93:a4:24:eb:0a:
                    92:3f:1e:4f:c3:10:7d:af:44:2a:93:09:84:25:ad:
                    64:b0:b0:ba:12:37:e7:26:65:2a:2b:7a:51:b5:98:
                    e8:90:5f:93:96:6e:ce:5d:89:8d:0b:fd:ff:b0:6c:
                    fa:6c:59:2d:e2:22:e6:32:5b:ee:f1:b7:7a:ab:bd:
                    47:da:68:16:3b:99:b0:13:ee:cb:16:be:40:f3:e9:
                    8a:98:83:66:45:17:55:b8:aa:65:df:de:4f:34:22:
                    eb:2b:b9:c6:90:de:2f:d8:4c:be:ae:ae:1a:62:fb:
                    ca:90:88:aa:1d:e5:9d:98:ad:e7:7c:3c:44:43:da:
                    57:fa:23:35:26:2a:a0:c0:ef:8c:38:58:c7:6e:61:
                    91:fa:4f:42:af:2b:2a:32:dc:27:71:98:35:7a:71:
                    3c:26:7f:a2:5c:8b:e7:87:0e:82:d0:74:43:a8:14:
                    66:a9:9e:53:18:b6:57:cb:5d:06:26:90:bd:3b:e0:
                    e0:41
                Exponent: 65537 (0x10001)
    Signature Algorithm: sha256WithRSAEncryption
         0d:83:44:ef:3b:a4:0a:d9:d5:40:6a:dc:e4:28:22:d9:0b:b5:
         96:c3:d6:45:ba:82:87:36:11:00:45:70:0f:bb:50:b2:7e:70:
         48:9d:0e:35:f9:34:8b:4a:d5:1b:55:0c:b7:1f:9f:28:0c:38:
         aa:5f:00:5b:80:ee:f4:1d:7b:31:be:9d:a7:bc:a4:e7:28:72:
         a3:58:51:00:2c:8e:60:c0:57:42:2a:70:45:5a:d5:65:24:f8:
         dc:bf:d9:36:53:02:bb:81:60:8c:99:2e:04:93:ef:e8:ce:34:
         e9:60:f5:49:a2:a9:49:1c:f5:36:ad:3e:6c:5c:76:ce:61:4a:
         b8:70:ad:b0:49:90:cd:3a:13:30:82:a4:d3:a8:2a:f2:dc:3b:
         5f:d2:15:84:2a:8a:4a:90:45:6c:ac:d2:ba:95:da:39:ca:ef:
         c7:7e:96:f9:1f:ca:cf:ea:2c:a1:94:27:e6:ac:1a:07:0d:a1:
         80:f8:9d:b8:48:dc:3f:ec:1f:7f:04:5e:f8:9f:91:f3:f6:14:
         4c:6a:15:eb:76:b1:2a:96:67:09:8f:6f:fc:74:88:18:a2:ff:
         79:b6:35:72:ad:82:29:7e:ef:d3:e7:c4:80:e9:9a:b3:ba:6f:
         24:c5:14:7c:7d:a0:3b:86:59:ee:e5:61:83:b5:28:d5:dd:5d:
         46:68:63:b9
-----BEGIN CERTIFICATE-----
MIIDATCCAekCAhAAMA0GCSqGSIb3DQEBCwUAMEYxGzAZBgNVBAoMEnRlc3Rpbmcu
dmVuZXVyLm9yZzELMAkGA1UECwwCY2ExGjAYBgNVBAMMEXZlbmV1ciB0ZXN0aW5n
IENBMB4XDTIyMDgxNTE4MjM0OFoXDTIzMDgyNTE4MjM0OFowRjEbMBkGA1UECgwS
dGVzdGluZy52ZW5ldXIub3JnMQswCQYDVQQLDAJjYTEaMBgGA1UEAwwRdmVuZXVy
IHRlc3RpbmcgQ0EwggEiMA0GCSqGSIb3DQEBAQUAA4IBDwAwggEKAoIBAQDSkoY3
59rSV1UMWpDw7bB2AzjX/Q5rzGSD/EHeWaptv+ySbCDuzYqhjEM9qIPstw6cU3X6
uLia6VxefoDs/hplpa6X4/uTpCTrCpI/Hk/DEH2vRCqTCYQlrWSwsLoSN+cmZSor
elG1mOiQX5OWbs5diY0L/f+wbPpsWS3iIuYyW+7xt3qrvUfaaBY7mbAT7ssWvkDz
6YqYg2ZFF1W4qmXf3k80IusrucaQ3i/YTL6urhpi+8qQiKod5Z2Yred8PERD2lf6
IzUmKqDA74w4WMduYZH6T0KvKyoy3CdxmDV6cTwmf6Jci+eHDoLQdEOoFGapnlMY
tlfLXQYmkL074OBBAgMBAAEwDQYJKoZIhvcNAQELBQADggEBAA2DRO87pArZ1UBq
3OQoItkLtZbD1kW6goc2EQBFcA+7ULJ+cEidDjX5NItK1RtVDLcfnygMOKpfAFuA
7vQdezG+nae8pOcocqNYUQAsjmDAV0IqcEVa1WUk+Ny/2TZTAruBYIyZLgST7+jO
NOlg9UmiqUkc9TatPmxcds5hSrhwrbBJkM06EzCCpNOoKvLcO1/SFYQqikqQRWys
0rqV2jnK78d+lvkfys/qLKGUJ+asGgcNoYD4nbhI3D/sH38EXvifkfP2FExqFet2
sSqWZwmPb/x0iBii/3m2NXKtgil+79PnxIDpmrO6byTFFHx9oDuGWe7lYYO1KNXd
XUZoY7k=
-----END CERTIFICATE-----
