Certificate:
    Data:
        Version: 3 (0x2)
        Serial Number: 4098 (0x1002)
    Signature Algorithm: sha256WithRSAEncryption
        Issuer: O=testing.veneur.org, OU=ca, CN=veneur testing CA
        Validity
            Not Before: Aug  3 20:30:36 2021 GMT
            Not After : Aug  1 20:30:36 2031 GMT
        Subject: O=testing.veneur.org, OU=ca, CN=veneur testing server client_correct
        Subject Public Key Info:
            Public Key Algorithm: rsaEncryption
                Public-Key: (2048 bit)
                Modulus:
                    00:ba:0f:96:ee:25:3f:d0:88:bb:54:89:0e:55:6e:
                    f9:40:2d:6d:8d:e5:4e:10:56:2c:9b:82:ae:8b:00:
                    79:c7:bf:db:18:7e:20:a0:3a:25:96:08:a6:ee:ec:
                    f2:61:99:3d:65:68:82:f6:92:d3:03:68:dd:9d:cc:
                    e9:e5:bf:6f:bb:6b:5d:30:fa:ea:7c:f8:8b:d3:07:
                    bf:4d:c7:7b:77:de:4c:d5:6f:33:9b:be:80:9c:e0:
                    fe:59:62:fd:2a:12:73:2f:3b:50:d1:7c:b6:4e:45:
                    28:aa:b0:5b:26:38:03:f7:b9:43:4d:35:75:70:8a:
                    5b:b3:9a:64:c4:ec:d9:b2:48:bf:d4:d0:62:c5:c9:
                    81:9e:92:c2:d8:a6:e2:7b:81:09:d6:a6:dc:85:16:
                    d1:26:0a:83:b8:2c:d0:0e:71:82:72:00:7e:5c:2a:
                    5b:0e:20:72:b9:6d:27:0e:f3:fa:e1:91:ee:50:1c:
                    2d:c8:19:92:35:10:f9:7f:86:c4:1b:90:ed:c3:3b:
                    eb:17:2d:04:d3:af:1c:6d:e7:d7:d2:39:86:b6:5f:
                    55:92:24:f1:35:5e:28:15:aa:94:d3:33:49:34:f7:
                    d7:dc:b0:b1:b3:64:b6:cf:34:69:63:0c:c0:24:7d:
                    8f:8b:1f:30:2d:c0:de:1e:bb:6d:1e:e0:9b:b3:81:
                    48:47
                Exponent: 65537 (0x10001)
        X509v3 extensions:
            X509v3 Subject Alternative Name: 
                DNS:localhost, IP Address:127.0.0.1
    Signature Algorithm: sha256WithRSAEncryption
         07:de:e4:ab:6f:f2:3e:98:62:68:7b:29:77:3c:b2:8b:99:c7:
         cd:06:4c:1f:69:cf:5e:16:7a:e5:76:04:ba:2f:33:12:8e:ac:
         41:4e:10:12:85:44:53:93:7e:04:20:41:30:2b:e9:a5:bb:6b:
         e4:b0:22:3b:76:fc:64:09:fd:eb:72:9c:af:46:c2:cb:8f:a2:
         1d:6e:cb:50:33:ec:9e:4a:bc:1b:9a:31:8d:8a:45:3e:cb:be:
         8c:8b:6c:f0:fa:68:a1:ae:18:bb:30:dd:d8:d8:d2:ba:7b:cf:
         db:26:8a:48:e3:58:e5:e5:f7:44:2b:cb:66:46:e0:1c:55:d4:
         ac:69:18:92:e3:12:6f:d3:39:f1:b4:8e:e0:87:16:28:65:8c:
         a7:e9:db:5a:8d:4e:d1:aa:d6:73:c3:c9:69:94:b5:ce:ac:2c:
         66:a7:55:a8:c8:5e:de:b5:9c:c6:a0:f0:13:45:3a:58:ac:8e:
         55:aa:38:8a:22:02:73:be:79:83:05:1b:56:82:d9:17:d5:ce:
         14:5d:99:2f:e5:2d:99:82:f2:79:da:2e:a7:ce:5a:90:1d:13:
         04:6d:38:67:38:26:f0:36:1b:5c:11:bd:b2:0f:99:af:69:60:
         87:bf:de:59:80:fb:53:bc:4e:ef:fe:c6:b8:de:38:11:c1:af:
         6a:2e:93:6e
-----BEGIN CERTIFICATE-----
MIIDOTCCAiGgAwIBAgICEAIwDQYJKoZIhvcNAQELBQAwRjEbMBkGA1UECgwSdGVz
dGluZy52ZW5ldXIub3JnMQswCQYDVQQLDAJjYTEaMBgGA1UEAwwRdmVuZXVyIHRl
c3RpbmcgQ0EwHhcNMjEwODAzMjAzMDM2WhcNMzEwODAxMjAzMDM2WjBZMRswGQYD
VQQKDBJ0ZXN0aW5nLnZlbmV1ci5vcmcxCzAJBgNVBAsMAmNhMS0wKwYDVQQDDCR2
ZW5ldXIgdGVzdGluZyBzZXJ2ZXIgY2xpZW50X2NvcnJlY3QwggEiMA0GCSqGSIb3
DQEBAQUAA4IBDwAwggEKAoIBAQC6D5buJT/QiLtUiQ5VbvlALW2N5U4QViybgq6L
AHnHv9sYfiCgOiWWCKbu7PJhmT1laIL2ktMDaN2dzOnlv2+7a10w+up8+IvTB79N
x3t33kzVbzObvoCc4P5ZYv0qEnMvO1DRfLZORSiqsFsmOAP3uUNNNXVwiluzmmTE
7NmySL/U0GLFyYGeksLYpuJ7gQnWptyFFtEmCoO4LNAOcYJyAH5cKlsOIHK5bScO
8/rhke5QHC3IGZI1EPl/hsQbkO3DO+sXLQTTrxxt59fSOYa2X1WSJPE1XigVqpTT
M0k099fcsLGzZLbPNGljDMAkfY+LHzAtwN4eu20e4JuzgUhHAgMBAAGjHjAcMBoG
A1UdEQQTMBGCCWxvY2FsaG9zdIcEfwAAATANBgkqhkiG9w0BAQsFAAOCAQEAB97k
q2/yPphiaHspdzyyi5nHzQZMH2nPXhZ65XYEui8zEo6sQU4QEoVEU5N+BCBBMCvp
pbtr5LAiO3b8ZAn963Kcr0bCy4+iHW7LUDPsnkq8G5oxjYpFPsu+jIts8Ppooa4Y
uzDd2NjSunvP2yaKSONY5eX3RCvLZkbgHFXUrGkYkuMSb9M58bSO4IcWKGWMp+nb
Wo1O0arWc8PJaZS1zqwsZqdVqMhe3rWcxqDwE0U6WKyOVao4iiICc755gwUbVoLZ
F9XOFF2ZL+UtmYLyedoup85akB0TBG04Zzgm8DYbXBG9sg+Zr2lgh7/eWYD7U7xO
7/7GuN44EcGvai6Tbg==
-----END CERTIFICATE-----
