Certificate:
    Data:
        Version: 3 (0x2)
        Serial Number: 4097 (0x1001)
    Signature Algorithm: sha256WithRSAEncryption
        Issuer: O=testing.veneur.org, OU=ca, CN=veneur testing CA
        Validity
            Not Before: Jul 16 17:06:53 2020 GMT
            Not After : Jul 14 17:06:53 2030 GMT
        Subject: O=testing.veneur.org, OU=ca, CN=veneur testing server client_wrong
        Subject Public Key Info:
            Public Key Algorithm: rsaEncryption
                Public-Key: (2048 bit)
                Modulus:
                    00:ea:dc:ff:fc:1c:d4:b1:1b:15:d9:a7:48:07:94:
                    b9:6f:0e:8f:3c:ae:07:bd:0f:56:8b:36:de:7c:37:
                    17:0f:af:d5:71:c8:8e:68:26:48:b0:af:4f:1b:0d:
                    6b:8a:70:f8:be:80:50:1c:29:49:47:94:3c:ef:85:
                    97:8e:14:8e:3f:27:4c:80:e0:08:c7:46:d3:ae:2b:
                    8a:00:52:d1:1e:3f:c7:ee:46:78:bd:b1:30:be:48:
                    5d:f5:71:a6:3f:d4:92:3a:f9:eb:2a:36:c9:76:ce:
                    be:af:45:bf:db:31:3b:17:7c:1b:c9:96:2b:2b:56:
                    2f:1c:cf:a7:e3:af:9e:f5:07:9d:23:ab:4f:14:4d:
                    6e:c1:30:15:0b:19:ba:65:02:32:21:54:56:b8:15:
                    33:1d:f6:44:7c:11:4c:94:45:16:e2:72:72:2c:77:
                    64:2c:d2:3e:e7:ba:bb:91:a2:f1:75:e8:27:b3:b6:
                    8d:d7:38:43:60:96:51:ac:be:12:d2:ea:c7:85:61:
                    ae:44:5e:33:99:85:4d:99:91:d4:09:de:e5:b3:25:
                    96:b5:30:7e:ee:d1:dc:5e:f1:7b:20:df:ac:26:ca:
                    e5:9e:3a:6b:28:38:94:c0:3c:f9:d8:b6:6e:27:eb:
                    c7:6c:a7:d7:f5:cb:58:12:63:06:dc:2a:07:0d:08:
                    93:d3
                Exponent: 65537 (0x10001)
        X509v3 extensions:
            X509v3 Subject Alternative Name: 
                DNS:localhost, IP Address:127.0.0.1
    Signature Algorithm: sha256WithRSAEncryption
         2c:a2:56:18:f8:e1:70:46:3a:27:cd:d2:75:8e:57:f4:6b:20:
         65:04:d1:73:2c:2a:d2:b8:aa:74:89:d1:cb:06:1c:28:56:64:
         dd:9c:ef:5f:cf:b0:35:ba:38:30:5d:0d:40:74:ff:3a:8f:62:
         3f:84:eb:e4:86:88:84:ac:9c:84:28:fa:94:31:24:3a:3e:7d:
         7f:91:ae:f5:b3:6d:12:77:4d:8a:d7:c5:cb:cd:7f:8c:5c:24:
         66:f2:60:a4:4b:8f:88:8a:23:95:47:86:59:a5:0a:cf:39:d1:
         75:5f:19:a9:89:4b:9c:71:dd:2d:e2:2f:63:74:e6:d7:b4:03:
         27:59:cd:4e:11:f8:20:89:d0:d5:47:3f:8c:b1:ca:16:5c:d7:
         39:be:c7:05:00:c7:5d:66:85:65:9d:db:8a:a2:75:61:8d:f4:
         14:45:26:fb:60:6c:bc:55:1a:50:de:b0:81:d7:ae:43:47:24:
         09:b9:26:18:d6:db:38:31:eb:ce:bd:5a:22:aa:44:ef:2e:67:
         48:84:d1:d9:0b:ef:d4:ad:92:63:28:78:3b:04:cc:4c:51:fc:
         d9:2f:99:35:fd:a0:03:c1:59:d9:28:cb:71:2f:a4:ba:4c:b8:
         a5:25:75:5e:b2:0a:fd:07:fc:15:78:c8:64:42:e7:9d:b2:fd:
         34:fd:4e:f6
-----BEGIN CERTIFICATE-----
MIIDNzCCAh+gAwIBAgICEAEwDQYJKoZIhvcNAQELBQAwRjEbMBkGA1UECgwSdGVz
dGluZy52ZW5ldXIub3JnMQswCQYDVQQLDAJjYTEaMBgGA1UEAwwRdmVuZXVyIHRl
c3RpbmcgQ0EwHhcNMjAwNzE2MTcwNjUzWhcNMzAwNzE0MTcwNjUzWjBXMRswGQYD
VQQKDBJ0ZXN0aW5nLnZlbmV1ci5vcmcxCzAJBgNVBAsMAmNhMSswKQYDVQQDDCJ2
ZW5ldXIgdGVzdGluZyBzZXJ2ZXIgY2xpZW50X3dyb25nMIIBIjANBgkqhkiG9w0B
AQEFAAOCAQ8AMIIBCgKCAQEA6tz//BzUsRsV2adIB5S5bw6PPK4HvQ9WizbefDcX
D6/VcciOaCZIsK9PGw1rinD4voBQHClJR5Q874WXjhSOPydMgOAIx0bTriuKAFLR
Hj/H7kZ4vbEwvkhd9XGmP9SSOvnrKjbJds6+r0W/2zE7F3wbyZYrK1YvHM+n46+e
9QedI6tPFE1uwTAVCxm6ZQIyIVRWuBUzHfZEfBFMlEUW4nJyLHdkLNI+57q7kaLx
degns7aN1zhDYJZRrL4S0urHhWGuRF4zmYVNmZHUCd7lsyWWtTB+7tHcXvF7IN+s
JsrlnjprKDiUwDz52LZuJ+vHbKfX9ctYEmMG3CoHDQiT0wIDAQABox4wHDAaBgNV
HREEEzARgglsb2NhbGhvc3SHBH8AAAEwDQYJKoZIhvcNAQELBQADggEBACyiVhj4
4XBGOifN0nWOV/RrIGUE0XMsKtK4qnSJ0csGHChWZN2c71/PsDW6ODBdDUB0/zqP
Yj+E6+SGiISsnIQo+pQxJDo+fX+RrvWzbRJ3TYrXxcvNf4xcJGbyYKRLj4iKI5VH
hlmlCs850XVfGamJS5xx3S3iL2N05te0AydZzU4R+CCJ0NVHP4yxyhZc1zm+xwUA
x11mhWWd24qidWGN9BRFJvtgbLxVGlDesIHXrkNHJAm5JhjW2zgx6869WiKqRO8u
Z0iE0dkL79StkmMoeDsEzExR/NkvmTX9oAPBWdkoy3EvpLpMuKUldV6yCv0H/BV4
yGRC552y/TT9TvY=
-----END CERTIFICATE-----
