Certificate:
    Data:
        Version: 3 (0x2)
        Serial Number: 4098 (0x1002)
    Signature Algorithm: sha256WithRSAEncryption
        Issuer: O=testing.veneur.org, OU=ca, CN=veneur testing CA
        Validity
            Not Before: Aug 15 18:23:49 2022 GMT
            Not After : Aug 12 18:23:49 2032 GMT
        Subject: O=testing.veneur.org, OU=ca, CN=veneur testing server client_correct
        Subject Public Key Info:
            Public Key Algorithm: rsaEncryption
                Public-Key: (2048 bit)
                Modulus:
                    00:f9:4a:1a:14:2b:eb:a5:a0:30:0d:fb:a0:fc:07:
                    18:1e:af:ee:b0:b1:fd:f4:1c:96:2a:39:21:1c:7a:
                    55:f0:6b:0b:d5:ed:12:40:43:cc:7d:28:68:d0:4a:
                    71:c4:b9:68:ed:f7:58:81:b5:a5:4e:73:f5:e1:24:
                    53:43:4f:41:11:44:2d:79:d6:49:78:2b:6d:4e:da:
                    4e:5b:1c:87:4a:39:61:66:03:dd:78:0e:29:13:f5:
                    8c:b4:9a:e5:89:72:c6:65:c2:ac:02:ab:3a:f8:98:
                    19:72:6b:03:73:bd:b7:c6:7b:b8:84:55:03:bc:84:
                    cf:ed:3c:23:c8:8a:22:77:48:dd:1e:52:ed:8f:d7:
                    dd:20:17:39:b6:54:2a:ea:70:df:11:f7:b4:b4:46:
                    e8:c5:88:45:33:68:a9:b3:0e:07:c6:0f:93:cf:cd:
                    8c:30:a5:08:04:60:4f:8e:b5:5c:09:8e:f2:ce:6c:
                    72:69:b2:ff:96:43:4a:ec:2f:90:e2:58:dd:dd:8b:
                    e5:f3:d3:2b:49:c4:23:34:9e:dd:54:a9:29:3b:12:
                    9d:3f:06:e3:d7:d5:af:98:26:6c:91:72:26:f5:15:
                    d5:66:63:17:ac:d6:5d:8a:29:0f:4d:f9:bf:ac:fc:
                    23:cb:6f:b9:8b:5a:19:0a:83:b2:a6:3f:7e:ec:eb:
                    03:4d
                Exponent: 65537 (0x10001)
        X509v3 extensions:
            X509v3 Subject Alternative Name: 
                DNS:localhost, IP Address:127.0.0.1
    Signature Algorithm: sha256WithRSAEncryption
         42:91:27:70:f6:60:de:7a:04:63:e5:d3:56:d7:9f:b2:d9:25:
         e7:5d:17:f1:8e:56:da:f7:0c:c9:13:8b:93:62:62:27:c9:86:
         4f:10:e8:81:9b:cf:b7:08:09:f4:cd:4f:8b:23:52:2c:32:02:
         84:1e:b3:61:81:0d:cf:ed:20:a8:d4:ed:67:1f:ea:2f:b4:d1:
         b8:40:3d:e6:5c:26:93:40:28:d1:f7:69:16:74:a9:fa:04:4e:
         69:f0:e3:fe:45:ef:f9:cd:c6:e1:8f:1a:30:24:e4:14:91:ff:
         c0:c8:4b:60:1f:0f:77:bf:1a:9e:76:50:85:4d:d2:5a:c6:a1:
         ba:fd:97:6b:86:2d:b5:37:e9:f4:0c:ff:de:99:33:e9:12:f0:
         96:dc:7b:8a:06:88:c1:2b:8c:21:36:c0:28:d8:56:6d:c2:a2:
         7b:00:28:54:13:f9:a4:a7:6a:f6:fb:54:8d:40:93:07:46:5d:
         fc:5b:74:c4:28:e4:13:a9:bf:d3:5f:04:51:3d:ea:12:6a:55:
         b8:28:90:32:99:a8:11:9d:d7:97:9c:db:a5:8d:c2:02:31:b1:
         3c:e7:ac:7d:38:a2:87:f4:06:d5:97:b0:36:f7:ae:08:53:06:
         40:89:2f:0f:56:db:dc:9d:fc:2f:3d:96:2c:51:04:78:52:32:
         7d:46:75:48
-----BEGIN CERTIFICATE-----
MIIDOTCCAiGgAwIBAgICEAIwDQYJKoZIhvcNAQELBQAwRjEbMBkGA1UECgwSdGVz
dGluZy52ZW5ldXIub3JnMQswCQYDVQQLDAJjYTEaMBgGA1UEAwwRdmVuZXVyIHRl
c3RpbmcgQ0EwHhcNMjIwODE1MTgyMzQ5WhcNMzIwODEyMTgyMzQ5WjBZMRswGQYD
VQQKDBJ0ZXN0aW5nLnZlbmV1ci5vcmcxCzAJBgNVBAsMAmNhMS0wKwYDVQQDDCR2
ZW5ldXIgdGVzdGluZyBzZXJ2ZXIgY2xpZW50X2NvcnJlY3QwggEiMA0GCSqGSIb3
DQEBAQUAA4IBDwAwggEKAoIBAQD5ShoUK+uloDAN+6D8Bxger+6wsf30HJYqOSEc
elXwawvV7RJAQ8x9KGjQSnHEuWjt91iBtaVOc/XhJFNDT0ERRC151kl4K21O2k5b
HIdKOWFmA914DikT9Yy0muWJcsZlwqwCqzr4mBlyawNzvbfGe7iEVQO8hM/tPCPI
iiJ3SN0eUu2P190gFzm2VCrqcN8R97S0RujFiEUzaKmzDgfGD5PPzYwwpQgEYE+O
tVwJjvLObHJpsv+WQ0rsL5DiWN3di+Xz0ytJxCM0nt1UqSk7Ep0/BuPX1a+YJmyR
cib1FdVmYxes1l2KKQ9N+b+s/CPLb7mLWhkKg7KmP37s6wNNAgMBAAGjHjAcMBoG
A1UdEQQTMBGCCWxvY2FsaG9zdIcEfwAAATANBgkqhkiG9w0BAQsFAAOCAQEAQpEn
cPZg3noEY+XTVtefstkl510X8Y5W2vcMyROLk2JiJ8mGTxDogZvPtwgJ9M1PiyNS
LDIChB6zYYENz+0gqNTtZx/qL7TRuEA95lwmk0Ao0fdpFnSp+gROafDj/kXv+c3G
4Y8aMCTkFJH/wMhLYB8Pd78annZQhU3SWsahuv2Xa4YttTfp9Az/3pkz6RLwltx7
igaIwSuMITbAKNhWbcKiewAoVBP5pKdq9vtUjUCTB0Zd/Ft0xCjkE6m/018EUT3q
EmpVuCiQMpmoEZ3Xl5zbpY3CAjGxPOesfTiih/QG1ZewNveuCFMGQIkvD1bb3J38
Lz2WLFEEeFIyfUZ1SA==
-----END CERTIFICATE-----
