Certificate:
    Data:
        Version: 3 (0x2)
        Serial Number: 4097 (0x1001)
    Signature Algorithm: sha256WithRSAEncryption
        Issuer: O=testing.veneur.org, OU=ca, CN=veneur testing CA
        Validity
            Not Before: Aug 15 18:23:49 2022 GMT
            Not After : Aug 12 18:23:49 2032 GMT
        Subject: O=testing.veneur.org, OU=ca, CN=veneur testing server client_wrong
        Subject Public Key Info:
            Public Key Algorithm: rsaEncryption
                Public-Key: (2048 bit)
                Modulus:
                    00:a0:3b:25:af:dd:41:16:26:95:3c:9b:af:9f:76:
                    4b:8e:f7:22:2e:8e:57:4b:64:47:d3:0e:82:15:b8:
                    d9:88:0a:f7:7d:ec:24:c3:a9:7e:ac:bb:bb:c2:14:
                    0f:d5:b4:b7:ae:0f:4b:c7:ad:60:ef:a9:09:d9:f1:
                    20:de:4b:0b:33:eb:1f:fa:55:7b:93:5a:e0:b7:8f:
                    f9:7e:ea:bc:56:fa:37:23:69:83:a8:33:e0:81:de:
                    f1:20:be:3f:84:00:96:bc:9b:dd:6d:9f:92:b2:86:
                    65:6c:23:0c:4c:7c:45:72:d8:c9:02:32:b7:f6:ff:
                    04:97:5c:96:f1:bd:58:28:f2:9c:12:81:b6:11:17:
                    61:3a:f6:06:10:a4:37:66:bf:e0:28:7e:6e:6c:e6:
                    52:1d:7e:4c:41:ef:53:08:d6:99:11:da:7c:61:75:
                    53:95:4c:3f:41:57:83:4f:e6:91:0d:7c:d0:45:c8:
                    1f:0e:6d:6b:b3:c5:ba:02:54:0a:f4:2d:27:d5:ae:
                    ca:b2:94:8d:47:da:32:04:3e:67:bd:ef:83:83:dd:
                    d3:7c:f4:b0:43:ff:b8:b0:ec:c6:58:7c:5a:13:48:
                    f3:ad:cc:c5:98:61:4e:4f:22:88:c4:62:55:34:bf:
                    aa:6d:1f:af:da:f4:75:83:60:48:b0:67:41:61:b9:
                    a8:ab
                Exponent: 65537 (0x10001)
        X509v3 extensions:
            X509v3 Subject Alternative Name: 
                DNS:localhost, IP Address:127.0.0.1
    Signature Algorithm: sha256WithRSAEncryption
         8e:b7:64:9f:b0:19:1e:e5:18:e1:00:c4:15:10:33:94:9a:0c:
         a9:d8:35:e9:ce:b3:fd:7c:0c:62:ce:52:a9:6a:66:e9:30:07:
         b8:55:ff:c2:11:b2:fa:0e:1d:ce:4f:b3:fd:1a:7d:72:31:a7:
         9e:1d:fa:53:0c:cd:e8:02:cc:d2:5b:f3:58:18:10:e0:d8:17:
         b4:f2:ab:d7:c0:d6:56:91:a0:6a:42:d9:e7:3f:c2:27:aa:f7:
         df:03:52:66:6c:4d:1b:fe:2e:9f:ff:d8:7c:db:c5:5e:18:13:
         9a:94:16:90:1b:19:e1:30:b7:75:02:e2:50:30:2f:ac:02:46:
         c8:ec:92:0b:e5:1b:cb:18:83:ea:03:a9:0c:d5:6e:71:24:17:
         6e:a6:c5:3b:9c:ca:59:2e:11:32:1a:cf:5d:0c:0d:26:37:26:
         60:26:bb:98:46:be:f7:23:33:a9:e4:23:ed:41:63:66:f0:2f:
         3c:f9:08:7d:cc:61:a0:cb:e1:5f:b4:38:1c:ef:b2:b5:36:7f:
         07:8d:ca:11:53:cc:96:35:47:95:8f:63:31:d8:36:d7:a0:19:
         7f:74:1b:3b:4e:c2:90:b6:6c:3b:8d:a1:e4:8a:c6:e1:59:93:
         45:da:2a:d7:99:e9:7d:25:8a:dc:d0:fb:25:2c:c1:f9:7b:41:
         75:ce:44:a0
-----BEGIN CERTIFICATE-----
MIIDNzCCAh+gAwIBAgICEAEwDQYJKoZIhvcNAQELBQAwRjEbMBkGA1UECgwSdGVz
dGluZy52ZW5ldXIub3JnMQswCQYDVQQLDAJjYTEaMBgGA1UEAwwRdmVuZXVyIHRl
c3RpbmcgQ0EwHhcNMjIwODE1MTgyMzQ5WhcNMzIwODEyMTgyMzQ5WjBXMRswGQYD
VQQKDBJ0ZXN0aW5nLnZlbmV1ci5vcmcxCzAJBgNVBAsMAmNhMSswKQYDVQQDDCJ2
ZW5ldXIgdGVzdGluZyBzZXJ2ZXIgY2xpZW50X3dyb25nMIIBIjANBgkqhkiG9w0B
AQEFAAOCAQ8AMIIBCgKCAQEAoDslr91BFiaVPJuvn3ZLjvciLo5XS2RH0w6CFbjZ
iAr3fewkw6l+rLu7whQP1bS3rg9Lx61g76kJ2fEg3ksLM+sf+lV7k1rgt4/5fuq8
Vvo3I2mDqDPggd7xIL4/hACWvJvdbZ+SsoZlbCMMTHxFctjJAjK39v8El1yW8b1Y
KPKcEoG2ERdhOvYGEKQ3Zr/gKH5ubOZSHX5MQe9TCNaZEdp8YXVTlUw/QVeDT+aR
DXzQRcgfDm1rs8W6AlQK9C0n1a7KspSNR9oyBD5nve+Dg93TfPSwQ/+4sOzGWHxa
E0jzrczFmGFOTyKIxGJVNL+qbR+v2vR1g2BIsGdBYbmoqwIDAQABox4wHDAaBgNV
HREEEzARgglsb2NhbGhvc3SHBH8AAAEwDQYJKoZIhvcNAQELBQADggEBAI63ZJ+w
GR7lGOEAxBUQM5SaDKnYNenOs/18DGLOUqlqZukwB7hV/8IRsvoOHc5Ps/0afXIx
p54d+lMMzegCzNJb81gYEODYF7Tyq9fA1laRoGpC2ec/wieq998DUmZsTRv+Lp//
2HzbxV4YE5qUFpAbGeEwt3UC4lAwL6wCRsjskgvlG8sYg+oDqQzVbnEkF26mxTuc
ylkuETIaz10MDSY3JmAmu5hGvvcjM6nkI+1BY2bwLzz5CH3MYaDL4V+0OBzvsrU2
fweNyhFTzJY1R5WPYzHYNtegGX90GztOwpC2bDuNoeSKxuFZk0XaKteZ6X0litzQ
+yUswfl7QXXORKA=
-----END CERTIFICATE-----
