Certificate:
    Data:
        Version: 3 (0x2)
        Serial Number: 4098 (0x1002)
    Signature Algorithm: sha256WithRSAEncryption
        Issuer: O=testing.veneur.org, OU=ca, CN=veneur testing CA
        Validity
            Not Before: Jul 16 17:06:53 2020 GMT
            Not After : Jul 14 17:06:53 2030 GMT
        Subject: O=testing.veneur.org, OU=ca, CN=veneur testing server client_correct
        Subject Public Key Info:
            Public Key Algorithm: rsaEncryption
                Public-Key: (2048 bit)
                Modulus:
                    00:be:f6:6b:42:3f:62:0c:56:3e:81:6d:0f:62:57:
                    b9:9d:66:cd:e1:f9:44:47:53:e7:87:0e:60:4b:3e:
                    4b:04:4d:39:4e:19:8f:28:aa:62:df:16:84:5d:8a:
                    bf:2a:e6:48:32:39:61:b0:52:d6:b6:13:50:aa:c1:
                    a3:ae:63:ee:44:78:68:51:aa:71:f8:2f:69:e5:a6:
                    89:7d:f7:c4:68:52:c0:87:08:cb:cc:71:25:11:01:
                    ba:a8:66:2e:8e:35:ac:71:f2:2d:3e:4a:d3:a9:e9:
                    16:b3:ba:e6:71:75:ab:a8:f3:53:ce:2f:da:c8:c8:
                    d7:6b:4c:e5:9d:9d:d9:bb:dd:09:ba:c3:78:b6:52:
                    f1:89:dc:15:f1:cf:20:1a:b5:44:c6:5a:cc:ff:70:
                    ae:5d:c8:53:ee:13:c8:b7:53:ee:d9:11:61:be:68:
                    f6:11:bd:f2:6e:9a:8e:83:e5:e5:40:12:02:e9:58:
                    9f:5b:21:c4:8f:39:b7:14:de:ec:b9:18:fc:ef:94:
                    9b:8b:d5:4e:b9:84:47:c4:fb:8d:fa:54:8b:48:76:
                    d8:97:9b:81:ff:76:2d:01:f6:a5:be:f5:23:26:12:
                    19:cb:32:f1:46:b7:91:b4:11:bb:09:e4:7e:d7:b4:
                    68:9d:0f:e5:14:aa:56:69:ca:65:cf:8f:2a:1e:13:
                    98:4b
                Exponent: 65537 (0x10001)
        X509v3 extensions:
            X509v3 Subject Alternative Name: 
                DNS:localhost, IP Address:127.0.0.1
    Signature Algorithm: sha256WithRSAEncryption
         b2:c1:3c:6f:d0:12:fe:92:ca:88:34:89:02:5e:9a:db:2b:25:
         8e:0e:60:04:53:bc:aa:f6:04:0e:1e:14:c1:a9:65:98:15:f6:
         af:d5:27:e4:f5:23:12:80:66:f3:a9:41:41:19:dc:89:4f:28:
         ac:1a:1b:d9:ad:73:ca:0e:ef:d0:f0:12:95:ec:f1:28:7e:5e:
         e0:55:05:bd:f9:43:0c:85:25:ca:9c:bf:6d:c2:3c:1c:ab:ab:
         60:b1:c6:e3:aa:cd:f3:0b:8f:d1:df:d3:ea:34:01:9e:01:62:
         4f:e9:98:fc:ff:4b:39:38:b4:aa:59:39:c3:fc:2e:fa:d4:de:
         94:8a:3e:c1:24:a7:e9:f9:e3:6a:d1:eb:25:6f:e4:4e:9c:c0:
         31:40:7b:d1:7b:6a:8a:c3:4f:8e:c9:22:a4:36:cf:d5:46:04:
         61:d2:97:dd:7d:3c:54:ee:31:05:e9:39:a2:72:15:2c:7b:ba:
         ef:cb:d6:43:0a:31:6b:46:bf:77:eb:6b:91:fe:fb:53:b2:84:
         ee:eb:cd:98:b0:05:98:0d:d2:0a:ce:18:f5:4f:9c:83:ce:bd:
         29:77:f1:70:45:f3:7a:7c:91:07:d3:d5:7f:04:9c:09:2b:46:
         ee:d7:2f:af:38:29:3f:af:6d:12:6d:ee:15:8c:c6:5d:53:48:
         79:30:a3:e6
-----BEGIN CERTIFICATE-----
MIIDOTCCAiGgAwIBAgICEAIwDQYJKoZIhvcNAQELBQAwRjEbMBkGA1UECgwSdGVz
dGluZy52ZW5ldXIub3JnMQswCQYDVQQLDAJjYTEaMBgGA1UEAwwRdmVuZXVyIHRl
c3RpbmcgQ0EwHhcNMjAwNzE2MTcwNjUzWhcNMzAwNzE0MTcwNjUzWjBZMRswGQYD
VQQKDBJ0ZXN0aW5nLnZlbmV1ci5vcmcxCzAJBgNVBAsMAmNhMS0wKwYDVQQDDCR2
ZW5ldXIgdGVzdGluZyBzZXJ2ZXIgY2xpZW50X2NvcnJlY3QwggEiMA0GCSqGSIb3
DQEBAQUAA4IBDwAwggEKAoIBAQC+9mtCP2IMVj6BbQ9iV7mdZs3h+URHU+eHDmBL
PksETTlOGY8oqmLfFoRdir8q5kgyOWGwUta2E1CqwaOuY+5EeGhRqnH4L2nlpol9
98RoUsCHCMvMcSURAbqoZi6ONaxx8i0+StOp6RazuuZxdauo81POL9rIyNdrTOWd
ndm73Qm6w3i2UvGJ3BXxzyAatUTGWsz/cK5dyFPuE8i3U+7ZEWG+aPYRvfJumo6D
5eVAEgLpWJ9bIcSPObcU3uy5GPzvlJuL1U65hEfE+436VItIdtiXm4H/di0B9qW+
9SMmEhnLMvFGt5G0EbsJ5H7XtGidD+UUqlZpymXPjyoeE5hLAgMBAAGjHjAcMBoG
A1UdEQQTMBGCCWxvY2FsaG9zdIcEfwAAATANBgkqhkiG9w0BAQsFAAOCAQEAssE8
b9AS/pLKiDSJAl6a2ysljg5gBFO8qvYEDh4UwallmBX2r9Un5PUjEoBm86lBQRnc
iU8orBob2a1zyg7v0PASlezxKH5e4FUFvflDDIUlypy/bcI8HKurYLHG46rN8wuP
0d/T6jQBngFiT+mY/P9LOTi0qlk5w/wu+tTelIo+wSSn6fnjatHrJW/kTpzAMUB7
0XtqisNPjskipDbP1UYEYdKX3X08VO4xBek5onIVLHu678vWQwoxa0a/d+trkf77
U7KE7uvNmLAFmA3SCs4Y9U+cg869KXfxcEXzenyRB9PVfwScCStG7tcvrzgpP69t
Em3uFYzGXVNIeTCj5g==
-----END CERTIFICATE-----
