Certificate:
    Data:
        Version: 3 (0x2)
        Serial Number: 4097 (0x1001)
    Signature Algorithm: sha256WithRSAEncryption
        Issuer: O=testing.veneur.org, OU=ca, CN=veneur testing CA
        Validity
            Not Before: Aug  3 20:30:36 2021 GMT
            Not After : Aug  1 20:30:36 2031 GMT
        Subject: O=testing.veneur.org, OU=ca, CN=veneur testing server client_wrong
        Subject Public Key Info:
            Public Key Algorithm: rsaEncryption
                Public-Key: (2048 bit)
                Modulus:
                    00:a7:49:56:bc:21:b8:26:82:47:23:f7:e2:0b:29:
                    18:e2:db:4f:2a:ce:11:dd:bc:22:fd:a5:1f:95:af:
                    31:75:cf:8c:7f:60:ea:72:fa:69:e4:e6:ed:95:26:
                    fd:d3:c9:4e:de:9f:85:f6:48:81:8b:44:6b:34:71:
                    1e:01:a3:d9:00:12:a8:db:d5:3b:c5:ee:de:f8:05:
                    56:5e:7b:88:25:c5:91:60:b0:23:03:c3:e4:18:9f:
                    bf:a3:5e:0c:1b:1a:04:00:66:b6:96:6e:b2:34:3c:
                    cb:3a:d1:0e:46:ee:40:ca:49:83:31:68:b2:30:ad:
                    ed:22:56:3b:79:c0:6b:f4:36:93:0c:36:3b:11:6d:
                    c2:a3:62:e6:6d:8d:d1:6e:36:b8:95:a6:19:f4:c9:
                    25:5e:ee:d0:74:82:91:2f:d6:f6:3d:02:38:39:8d:
                    14:b8:19:a6:0d:a5:0a:5b:ee:80:d8:ac:b4:53:9f:
                    b6:72:d6:14:40:11:d7:76:4a:92:e2:9c:e6:ff:46:
                    29:c4:89:a8:bc:e8:27:53:68:4d:17:6b:12:6b:99:
                    1a:a1:b6:35:b8:f5:35:18:b1:67:6d:61:ef:bc:ad:
                    5f:0f:a1:e2:ae:b3:56:8b:e9:94:58:c6:46:66:63:
                    7c:ab:e5:22:7f:8d:ca:d6:7e:69:f5:ed:ea:05:cf:
                    c2:59
                Exponent: 65537 (0x10001)
        X509v3 extensions:
            X509v3 Subject Alternative Name: 
                DNS:localhost, IP Address:127.0.0.1
    Signature Algorithm: sha256WithRSAEncryption
         6a:f2:ac:8b:c3:a7:8e:a5:78:85:cd:e9:ac:52:08:d3:46:14:
         fe:d0:3f:b5:7f:a8:41:9f:6b:cf:db:f3:41:62:01:1c:ba:9d:
         2c:f8:0e:3c:a1:30:60:a2:85:5a:67:10:73:a0:33:1a:b0:df:
         26:e1:2e:9e:68:63:5d:87:46:32:a4:4d:6d:b9:36:dd:47:f3:
         fa:35:bc:a3:e0:8f:a6:b4:0c:c3:c2:25:fe:d0:14:88:7b:cc:
         fb:06:44:19:37:90:dc:60:68:f3:89:47:b4:33:ea:33:5d:05:
         56:e1:4c:25:e2:0d:d0:29:43:8a:77:6e:4b:9b:d7:53:55:cf:
         40:72:76:cd:1d:41:a5:6c:fa:17:65:9e:2e:e9:c0:bd:5c:e3:
         13:05:65:05:ea:36:a0:bf:ed:38:88:c9:82:13:62:a3:45:d4:
         5c:4e:30:b7:8a:1d:c6:7f:ae:cd:f9:ab:cc:25:f1:41:1e:95:
         47:3f:5d:99:59:31:26:6e:f9:b7:d1:e1:1e:a7:0a:b6:b7:8f:
         73:60:bf:19:6e:83:e0:35:98:b2:90:95:c9:ed:26:44:a1:76:
         2a:25:fe:9e:ee:89:92:79:bc:4a:2b:56:ba:7a:82:9b:06:32:
         8b:88:42:83:ee:01:1c:14:b6:0b:e4:53:0e:bd:8a:33:1d:96:
         2c:48:33:20
-----BEGIN CERTIFICATE-----
MIIDNzCCAh+gAwIBAgICEAEwDQYJKoZIhvcNAQELBQAwRjEbMBkGA1UECgwSdGVz
dGluZy52ZW5ldXIub3JnMQswCQYDVQQLDAJjYTEaMBgGA1UEAwwRdmVuZXVyIHRl
c3RpbmcgQ0EwHhcNMjEwODAzMjAzMDM2WhcNMzEwODAxMjAzMDM2WjBXMRswGQYD
VQQKDBJ0ZXN0aW5nLnZlbmV1ci5vcmcxCzAJBgNVBAsMAmNhMSswKQYDVQQDDCJ2
ZW5ldXIgdGVzdGluZyBzZXJ2ZXIgY2xpZW50X3dyb25nMIIBIjANBgkqhkiG9w0B
AQEFAAOCAQ8AMIIBCgKCAQEAp0lWvCG4JoJHI/fiCykY4ttPKs4R3bwi/aUfla8x
dc+Mf2Dqcvpp5ObtlSb908lO3p+F9kiBi0RrNHEeAaPZABKo29U7xe7e+AVWXnuI
JcWRYLAjA8PkGJ+/o14MGxoEAGa2lm6yNDzLOtEORu5AykmDMWiyMK3tIlY7ecBr
9DaTDDY7EW3Co2LmbY3Rbja4laYZ9MklXu7QdIKRL9b2PQI4OY0UuBmmDaUKW+6A
2Ky0U5+2ctYUQBHXdkqS4pzm/0YpxImovOgnU2hNF2sSa5kaobY1uPU1GLFnbWHv
vK1fD6HirrNWi+mUWMZGZmN8q+Uif43K1n5p9e3qBc/CWQIDAQABox4wHDAaBgNV
HREEEzARgglsb2NhbGhvc3SHBH8AAAEwDQYJKoZIhvcNAQELBQADggEBAGryrIvD
p46leIXN6axSCNNGFP7QP7V/qEGfa8/b80FiARy6nSz4DjyhMGCihVpnEHOgMxqw
3ybhLp5oY12HRjKkTW25Nt1H8/o1vKPgj6a0DMPCJf7QFIh7zPsGRBk3kNxgaPOJ
R7Qz6jNdBVbhTCXiDdApQ4p3bkub11NVz0Byds0dQaVs+hdlni7pwL1c4xMFZQXq
NqC/7TiIyYITYqNF1FxOMLeKHcZ/rs35q8wl8UEelUc/XZlZMSZu+bfR4R6nCra3
j3Ngvxlug+A1mLKQlcntJkShdiol/p7uiZJ5vEorVrp6gpsGMouIQoPuARwUtgvk
Uw69ijMdlixIMyA=
-----END CERTIFICATE-----
