Certificate:
    Data:
        Version: 3 (0x2)
        Serial Number: 4097 (0x1001)
    Signature Algorithm: sha256WithRSAEncryption
        Issuer: O=testing.veneur.org, OU=ca, CN=veneur testing CA
        Validity
            Not Before: Aug  3 20:30:36 2021 GMT
            Not After : Aug  1 20:30:36 2031 GMT
        Subject: O=testing.veneur.org, OU=ca, CN=veneur testing server server
        Subject Public Key Info:
            Public Key Algorithm: rsaEncryption
                Public-Key: (2048 bit)
                Modulus:
                    00:cc:7a:ea:d2:18:6b:1f:5f:83:89:76:4d:b7:b2:
                    60:73:37:4a:09:de:df:73:91:39:f8:1e:62:cc:3c:
                    e3:45:e0:b1:b6:6a:e5:a1:73:90:40:df:e6:b0:1e:
                    80:91:09:08:ac:1d:82:2a:16:17:c0:72:d1:c1:ca:
                    6e:d4:55:b4:35:04:2c:ce:57:9e:e9:c5:51:1a:e7:
                    fd:0f:0d:48:20:0c:05:9a:5d:b5:52:09:38:f1:0b:
                    34:6b:cb:46:e4:ad:38:68:44:35:06:33:cf:5b:de:
                    e8:9e:de:e5:9e:2a:40:1d:6d:8d:a7:55:d3:cb:26:
                    13:d9:f0:7c:28:f8:f0:26:18:54:62:f8:bc:45:3a:
                    c8:b4:01:5d:17:0f:50:ab:a3:9e:1c:99:f7:b3:84:
                    f7:f3:72:1a:56:e2:42:4f:f2:41:98:22:ff:42:d1:
                    c4:56:fc:bf:1a:dc:ec:0e:f7:f5:a7:d5:96:c4:3e:
                    e9:97:93:3d:05:4d:84:46:ec:d0:03:8c:d5:e2:85:
                    0f:fe:ec:f7:9f:8e:dd:30:a0:c4:81:0c:48:4f:43:
                    ab:5f:a7:11:77:79:2a:e7:f5:01:3c:87:39:e2:bf:
                    53:ef:c2:2b:f4:b2:ee:57:46:14:13:77:8e:79:a8:
                    98:06:59:74:6e:90:de:21:9c:d1:15:f1:d8:af:1f:
                    a1:b9
                Exponent: 65537 (0x10001)
        X509v3 extensions:
            X509v3 Subject Alternative Name: 
                DNS:localhost, IP Address:127.0.0.1
    Signature Algorithm: sha256WithRSAEncryption
         75:67:38:89:00:a2:c8:bf:7d:69:55:5e:a5:f5:c3:0d:2a:8f:
         af:91:fb:f5:23:26:96:fd:9c:1d:07:72:b4:f7:82:d4:fc:48:
         43:c0:d4:9f:15:c0:16:73:06:fa:33:c9:6c:4a:57:84:1b:3f:
         d6:25:69:8f:77:3a:c8:08:ee:59:d3:7f:c8:f6:84:b0:3e:ba:
         c6:84:99:3b:45:b3:67:a6:ce:46:ab:b5:b9:55:e0:58:f3:8c:
         25:c7:9b:d0:13:bc:cd:f8:05:ad:79:db:85:f7:16:75:93:e3:
         47:7d:bd:c9:ba:1c:ac:e1:8f:50:21:f4:f2:21:91:0e:87:28:
         b6:91:1a:c2:67:6d:db:62:31:de:ed:cd:90:d8:01:a8:3e:c8:
         40:45:e1:27:cf:6d:18:3d:5d:77:47:ad:5b:f3:6f:2f:15:eb:
         f7:8e:39:be:65:50:78:71:35:0c:de:69:14:47:df:d2:53:32:
         0a:d8:d1:f7:08:d8:00:ee:68:a9:8d:52:ba:76:4f:dd:80:1e:
         63:d7:9a:0d:9f:60:de:50:d7:97:96:c5:7c:44:87:3e:45:39:
         71:1f:18:c9:9e:8b:26:fb:65:96:c1:be:de:7e:f1:47:8d:1e:
         ea:68:eb:e5:2b:0c:c8:27:39:d0:e1:ec:14:66:6f:eb:14:84:
         ed:0e:79:0a
-----BEGIN CERTIFICATE-----
MIIDMTCCAhmgAwIBAgICEAEwDQYJKoZIhvcNAQELBQAwRjEbMBkGA1UECgwSdGVz
dGluZy52ZW5ldXIub3JnMQswCQYDVQQLDAJjYTEaMBgGA1UEAwwRdmVuZXVyIHRl
c3RpbmcgQ0EwHhcNMjEwODAzMjAzMDM2WhcNMzEwODAxMjAzMDM2WjBRMRswGQYD
VQQKDBJ0ZXN0aW5nLnZlbmV1ci5vcmcxCzAJBgNVBAsMAmNhMSUwIwYDVQQDDBx2
ZW5ldXIgdGVzdGluZyBzZXJ2ZXIgc2VydmVyMIIBIjANBgkqhkiG9w0BAQEFAAOC
AQ8AMIIBCgKCAQEAzHrq0hhrH1+DiXZNt7JgczdKCd7fc5E5+B5izDzjReCxtmrl
oXOQQN/msB6AkQkIrB2CKhYXwHLRwcpu1FW0NQQszlee6cVRGuf9Dw1IIAwFml21
Ugk48Qs0a8tG5K04aEQ1BjPPW97ont7lnipAHW2Np1XTyyYT2fB8KPjwJhhUYvi8
RTrItAFdFw9Qq6OeHJn3s4T383IaVuJCT/JBmCL/QtHEVvy/GtzsDvf1p9WWxD7p
l5M9BU2ERuzQA4zV4oUP/uz3n47dMKDEgQxIT0OrX6cRd3kq5/UBPIc54r9T78Ir
9LLuV0YUE3eOeaiYBll0bpDeIZzRFfHYrx+huQIDAQABox4wHDAaBgNVHREEEzAR
gglsb2NhbGhvc3SHBH8AAAEwDQYJKoZIhvcNAQELBQADggEBAHVnOIkAosi/fWlV
XqX1ww0qj6+R+/UjJpb9nB0HcrT3gtT8SEPA1J8VwBZzBvozyWxKV4QbP9YlaY93
OsgI7lnTf8j2hLA+usaEmTtFs2emzkartblV4FjzjCXHm9ATvM34Ba1524X3FnWT
40d9vcm6HKzhj1Ah9PIhkQ6HKLaRGsJnbdtiMd7tzZDYAag+yEBF4SfPbRg9XXdH
rVvzby8V6/eOOb5lUHhxNQzeaRRH39JTMgrY0fcI2ADuaKmNUrp2T92AHmPXmg2f
YN5Q15eWxXxEhz5FOXEfGMmeiyb7ZZbBvt5+8UeNHupo6+UrDMgnOdDh7BRmb+sU
hO0OeQo=
-----END CERTIFICATE-----
