Certificate:
    Data:
        Version: 3 (0x2)
        Serial Number: 4097 (0x1001)
    Signature Algorithm: sha256WithRSAEncryption
        Issuer: O=testing.veneur.org, OU=ca, CN=veneur testing CA
        Validity
            Not Before: Jul 16 17:06:53 2020 GMT
            Not After : Jul 14 17:06:53 2030 GMT
        Subject: O=testing.veneur.org, OU=ca, CN=veneur testing server server
        Subject Public Key Info:
            Public Key Algorithm: rsaEncryption
                Public-Key: (2048 bit)
                Modulus:
                    00:c7:64:01:7f:c2:e5:17:5b:54:37:9c:30:2e:4f:
                    6f:ce:db:da:17:25:85:9d:65:ef:4d:77:3e:18:3c:
                    10:37:33:fa:97:43:c5:95:44:85:16:6d:a8:0b:44:
                    7c:3d:2c:fe:4f:6b:66:a2:96:78:5e:24:15:6a:64:
                    e9:7d:e7:64:5f:93:48:16:ba:a6:3a:51:ae:4a:a8:
                    82:d8:0a:88:5e:fb:62:59:32:90:13:ae:dc:a5:8a:
                    da:8e:4c:ef:27:64:7a:b1:52:96:4b:1d:6a:20:19:
                    6a:b0:12:af:c5:b5:8f:31:bd:74:cf:50:b5:21:4b:
                    f0:9b:6f:0d:42:e4:9d:2b:d1:c3:63:77:75:c7:8a:
                    5d:b4:ef:a3:5e:81:16:99:38:58:b4:35:35:df:68:
                    e2:b2:a9:4e:b7:43:de:97:ab:fc:0f:fb:61:ae:4c:
                    80:58:7f:0e:10:88:1a:64:ee:78:6b:da:45:f1:37:
                    b3:53:6f:7a:15:30:a8:0f:ef:e2:ed:fc:8b:95:e8:
                    97:fa:cf:4a:b4:33:1d:ed:66:6b:32:76:6d:44:96:
                    98:16:9e:a9:c5:c8:ec:fb:e2:4d:1f:4b:9a:1c:23:
                    0c:17:7c:9a:dd:9c:af:78:7b:18:16:1c:5b:47:ae:
                    04:9b:8e:0a:76:fd:3e:4e:f8:a6:25:95:68:9e:4b:
                    dd:0f
                Exponent: 65537 (0x10001)
        X509v3 extensions:
            X509v3 Subject Alternative Name: 
                DNS:localhost, IP Address:127.0.0.1
    Signature Algorithm: sha256WithRSAEncryption
         ad:c6:5d:f6:30:73:a1:24:b6:88:59:24:60:3d:18:ba:16:8b:
         0a:17:64:8f:fe:62:46:a6:58:54:fa:c8:e9:97:c9:d4:c7:25:
         85:e3:e2:5a:73:83:c8:36:67:5f:f6:05:82:2f:6b:26:96:c6:
         93:40:89:cd:5e:61:73:7e:03:aa:16:23:35:7f:fa:56:35:db:
         d7:6c:7f:71:7e:79:90:ab:33:46:89:b6:f9:6d:53:ed:32:9d:
         a9:59:05:e9:e4:09:26:53:30:68:fe:f0:aa:5c:f8:94:b7:58:
         bd:d6:3b:51:f9:fe:c2:61:e3:19:fc:73:7e:b3:a2:e9:10:d0:
         c8:0e:6e:f3:e0:e1:a5:20:34:d7:b2:49:6b:49:f1:e3:38:f5:
         b6:e3:59:bf:99:bc:20:79:3e:48:9a:fd:02:2c:b8:18:4a:21:
         5b:26:97:57:c2:be:27:b9:90:83:9d:6e:16:dc:78:53:34:8b:
         aa:5a:2d:b8:ea:aa:da:47:d2:6d:46:c8:a7:ff:ed:5e:6f:d0:
         27:d2:b6:a0:e3:3e:40:0b:47:44:e2:97:bb:4f:80:28:04:75:
         fa:9e:55:d1:57:f4:b3:21:2b:94:2a:67:7f:33:cd:af:d4:e3:
         1c:51:cf:3d:bc:fa:b8:72:0e:5a:9a:d5:5f:ac:56:07:8e:05:
         8f:74:b5:57
-----BEGIN CERTIFICATE-----
MIIDMTCCAhmgAwIBAgICEAEwDQYJKoZIhvcNAQELBQAwRjEbMBkGA1UECgwSdGVz
dGluZy52ZW5ldXIub3JnMQswCQYDVQQLDAJjYTEaMBgGA1UEAwwRdmVuZXVyIHRl
c3RpbmcgQ0EwHhcNMjAwNzE2MTcwNjUzWhcNMzAwNzE0MTcwNjUzWjBRMRswGQYD
VQQKDBJ0ZXN0aW5nLnZlbmV1ci5vcmcxCzAJBgNVBAsMAmNhMSUwIwYDVQQDDBx2
ZW5ldXIgdGVzdGluZyBzZXJ2ZXIgc2VydmVyMIIBIjANBgkqhkiG9w0BAQEFAAOC
AQ8AMIIBCgKCAQEAx2QBf8LlF1tUN5wwLk9vztvaFyWFnWXvTXc+GDwQNzP6l0PF
lUSFFm2oC0R8PSz+T2tmopZ4XiQVamTpfedkX5NIFrqmOlGuSqiC2AqIXvtiWTKQ
E67cpYrajkzvJ2R6sVKWSx1qIBlqsBKvxbWPMb10z1C1IUvwm28NQuSdK9HDY3d1
x4pdtO+jXoEWmThYtDU132jisqlOt0Pel6v8D/thrkyAWH8OEIgaZO54a9pF8Tez
U296FTCoD+/i7fyLleiX+s9KtDMd7WZrMnZtRJaYFp6pxcjs++JNH0uaHCMMF3ya
3ZyveHsYFhxbR64Em44Kdv0+TvimJZVonkvdDwIDAQABox4wHDAaBgNVHREEEzAR
gglsb2NhbGhvc3SHBH8AAAEwDQYJKoZIhvcNAQELBQADggEBAK3GXfYwc6EktohZ
JGA9GLoWiwoXZI/+YkamWFT6yOmXydTHJYXj4lpzg8g2Z1/2BYIvayaWxpNAic1e
YXN+A6oWIzV/+lY129dsf3F+eZCrM0aJtvltU+0ynalZBenkCSZTMGj+8Kpc+JS3
WL3WO1H5/sJh4xn8c36zoukQ0MgObvPg4aUgNNeySWtJ8eM49bbjWb+ZvCB5Pkia
/QIsuBhKIVsml1fCvie5kIOdbhbceFM0i6paLbjqqtpH0m1GyKf/7V5v0CfStqDj
PkALR0Til7tPgCgEdfqeVdFX9LMhK5QqZ38zza/U4xxRzz28+rhyDlqa1V+sVgeO
BY90tVc=
-----END CERTIFICATE-----
