Certificate:
    Data:
        Version: 3 (0x2)
        Serial Number: 4097 (0x1001)
    Signature Algorithm: sha256WithRSAEncryption
        Issuer: O=testing.veneur.org, OU=ca, CN=veneur testing CA
        Validity
            Not Before: Aug 15 18:23:49 2022 GMT
            Not After : Aug 12 18:23:49 2032 GMT
        Subject: O=testing.veneur.org, OU=ca, CN=veneur testing server server
        Subject Public Key Info:
            Public Key Algorithm: rsaEncryption
                Public-Key: (2048 bit)
                Modulus:
                    00:ca:83:38:a0:90:2d:88:f9:c4:85:89:ac:ba:7d:
                    a2:d0:ea:4d:7e:f8:f8:99:dc:e1:99:37:3b:23:d2:
                    54:a6:ee:f0:9c:57:c5:3b:8d:18:75:28:4e:02:20:
                    8e:9c:fd:e5:9e:85:41:a8:e3:32:77:ef:a4:15:23:
                    e1:2b:32:32:ba:cb:8b:63:ab:19:57:80:11:7c:32:
                    e1:fa:26:e3:82:0c:49:0a:cc:44:4a:f7:be:ab:c9:
                    a5:46:1d:2f:67:8e:b9:00:87:94:39:dc:1f:81:10:
                    9f:89:55:d3:e0:3e:96:ea:ce:6f:0a:ad:2a:5f:65:
                    18:70:8b:ad:d7:98:10:1c:b4:bf:86:bb:38:95:55:
                    7d:a2:1c:15:9e:3b:68:01:8f:e3:e9:01:93:93:a6:
                    ea:7e:ee:26:f7:a1:81:84:cc:86:27:ee:dc:16:f7:
                    72:5e:b2:e9:04:55:fa:7e:bb:b3:cb:e8:4b:8e:b1:
                    ea:92:cc:93:e4:36:9b:d7:99:9c:4a:59:2d:a7:b9:
                    20:5c:64:bb:2e:ae:16:a4:58:6a:68:35:06:79:66:
                    3e:ee:06:b1:45:d4:f1:37:e8:20:4e:97:d5:b9:4e:
                    38:f2:46:eb:0c:8e:b4:b4:d0:d2:2d:75:9b:10:4a:
                    d7:0b:f8:21:20:a8:36:3e:95:ca:9f:9e:c9:08:8f:
                    41:5f
                Exponent: 65537 (0x10001)
        X509v3 extensions:
            X509v3 Subject Alternative Name: 
                DNS:localhost, IP Address:127.0.0.1
    Signature Algorithm: sha256WithRSAEncryption
         b2:31:49:53:9b:96:3d:72:08:d9:2d:60:c2:f0:e2:e1:27:6f:
         b0:75:cf:35:00:0c:3c:05:d1:4a:9a:ab:5c:2f:ed:ea:ad:52:
         2c:0d:9f:ee:58:7d:44:61:70:1e:9e:94:64:e2:5f:5f:ad:f0:
         56:b2:07:62:9e:1b:83:e9:b9:d9:cc:a8:65:ee:80:31:66:cd:
         f5:e7:9f:09:8f:99:e8:22:1b:28:30:e2:0f:d9:c0:7e:fc:46:
         8b:db:70:c7:05:d7:6b:45:fb:70:55:6f:ad:2c:66:8f:97:70:
         c8:25:f5:ef:e4:d2:e9:a3:51:9b:67:ef:9f:16:14:07:5e:e4:
         e5:e5:2c:0a:48:2d:37:e7:e1:30:75:bf:76:2d:3d:e6:06:da:
         c8:6f:a6:e0:cf:28:7d:24:f0:36:b0:62:c2:6c:7b:71:f5:30:
         b7:b6:04:dd:33:82:a0:58:3f:37:0d:7e:69:0b:ff:e5:15:7c:
         0a:74:98:a8:74:41:ce:95:9d:da:03:7b:f0:1b:1a:a7:f5:76:
         4e:e4:5a:fa:81:a0:ac:49:41:bc:a7:3b:37:a5:88:e5:3b:3f:
         08:ce:0a:af:b5:d9:f0:73:bb:33:8b:56:77:d7:ae:4e:43:7b:
         4b:1c:94:5c:d5:b1:1a:b4:46:09:d4:e6:45:a0:e6:a9:d8:74:
         64:25:8c:bd
-----BEGIN CERTIFICATE-----
MIIDMTCCAhmgAwIBAgICEAEwDQYJKoZIhvcNAQELBQAwRjEbMBkGA1UECgwSdGVz
dGluZy52ZW5ldXIub3JnMQswCQYDVQQLDAJjYTEaMBgGA1UEAwwRdmVuZXVyIHRl
c3RpbmcgQ0EwHhcNMjIwODE1MTgyMzQ5WhcNMzIwODEyMTgyMzQ5WjBRMRswGQYD
VQQKDBJ0ZXN0aW5nLnZlbmV1ci5vcmcxCzAJBgNVBAsMAmNhMSUwIwYDVQQDDBx2
ZW5ldXIgdGVzdGluZyBzZXJ2ZXIgc2VydmVyMIIBIjANBgkqhkiG9w0BAQEFAAOC
AQ8AMIIBCgKCAQEAyoM4oJAtiPnEhYmsun2i0OpNfvj4mdzhmTc7I9JUpu7wnFfF
O40YdShOAiCOnP3lnoVBqOMyd++kFSPhKzIyusuLY6sZV4ARfDLh+ibjggxJCsxE
Sve+q8mlRh0vZ465AIeUOdwfgRCfiVXT4D6W6s5vCq0qX2UYcIut15gQHLS/hrs4
lVV9ohwVnjtoAY/j6QGTk6bqfu4m96GBhMyGJ+7cFvdyXrLpBFX6fruzy+hLjrHq
ksyT5Dab15mcSlktp7kgXGS7Lq4WpFhqaDUGeWY+7gaxRdTxN+ggTpfVuU448kbr
DI60tNDSLXWbEErXC/ghIKg2PpXKn57JCI9BXwIDAQABox4wHDAaBgNVHREEEzAR
gglsb2NhbGhvc3SHBH8AAAEwDQYJKoZIhvcNAQELBQADggEBALIxSVOblj1yCNkt
YMLw4uEnb7B1zzUADDwF0Uqaq1wv7eqtUiwNn+5YfURhcB6elGTiX1+t8FayB2Ke
G4PpudnMqGXugDFmzfXnnwmPmegiGygw4g/ZwH78RovbcMcF12tF+3BVb60sZo+X
cMgl9e/k0umjUZtn758WFAde5OXlLApILTfn4TB1v3YtPeYG2shvpuDPKH0k8Daw
YsJse3H1MLe2BN0zgqBYPzcNfmkL/+UVfAp0mKh0Qc6VndoDe/AbGqf1dk7kWvqB
oKxJQbynOzeliOU7PwjOCq+12fBzuzOLVnfXrk5De0sclFzVsRq0RgnU5kWg5qnY
dGQljL0=
-----END CERTIFICATE-----
